; Function Attrs: nounwind uwtable
define hidden void @je_malloc_mutex_prefork(ptr noundef %0, ptr noundef %1) local_unnamed_addr #0 {
  %3 = getelementptr inbounds nuw i8, ptr %1, i64 72
  %4 = tail call i32 @pthread_mutex_trylock(ptr noundef nonnull %3) #7
  %.not.i = icmp eq i32 %4, 0
  br i1 %.not.i, label %malloc_mutex_trylock_final.exit.i, label %6

malloc_mutex_trylock_final.exit.i:                ; preds = %2
  %5 = getelementptr inbounds nuw i8, ptr %1, i64 64
  store atomic i8 1, ptr %5 monotonic, align 1
  br label %7

6:                                                ; preds = %2
  tail call void @je_malloc_mutex_lock_slow(ptr noundef nonnull %1)
  br label %7

7:                                                ; preds = %6, %malloc_mutex_trylock_final.exit.i
  %8 = getelementptr inbounds nuw i8, ptr %1, i64 56
  %9 = load i64, ptr %8, align 8, !tbaa !23
  %10 = add i64 %9, 1
  store i64 %10, ptr %8, align 8, !tbaa !23
  %11 = getelementptr inbounds nuw i8, ptr %1, i64 48
  %12 = load ptr, ptr %11, align 8, !tbaa !22
  %.not.i.i = icmp eq ptr %12, %0
  br i1 %.not.i.i, label %malloc_mutex_lock.exit, label %13

13:                                               ; preds = %7
  store ptr %0, ptr %11, align 8, !tbaa !22
  %14 = getelementptr inbounds nuw i8, ptr %1, i64 40
  %15 = load i64, ptr %14, align 8, !tbaa !24
  %16 = add i64 %15, 1
  store i64 %16, ptr %14, align 8, !tbaa !24
  br label %malloc_mutex_lock.exit

malloc_mutex_lock.exit:                           ; preds = %7, %13
  ret void
}